target datalayout = "e-m:e-p270:32:32-p271:32:32-p272:64:64-i64:64-i128:128-f80:128-n8:16:32:64-S128"
target triple = "x86_64-pc-linux-gnu"

%struct.SDL_AtomicInt = type { i32 }
%struct.SDL_Window = type { i32, ptr, ptr, i32, i32, i32, i32, i32, i32, i32, i32, float, float, i32, i32, i64, i64, float, i8, i8, i32, i32, %struct.SDL_Rect, %struct.SDL_Rect, %struct.SDL_Rect, i8, i8, i8, %struct.SDL_DisplayMode, %struct.SDL_DisplayMode, %struct.SDL_HDROutputProperties, float, ptr, i8, i8, i8, i8, i8, i8, i8, i8, i8, i32, i32, i32, i32, %struct.SDL_Rect, i32, i8, %struct.SDL_Rect, i32, %struct.SDL_Rect, ptr, ptr, i32, float, i32, i32, ptr, ptr, ptr, ptr, ptr, ptr, ptr, ptr, ptr }
%struct.SDL_DisplayMode = type { i32, i32, i32, i32, float, float, i32, i32, ptr }
%struct.SDL_HDROutputProperties = type { float, float }
%struct.SDL_Rect = type { i32, i32, i32, i32 }
%struct.SDL_VideoDevice = type { ptr, ptr, ptr, ptr, ptr, ptr, ptr, ptr, ptr, ptr, ptr, ptr, ptr, ptr, ptr, ptr, ptr, ptr, ptr, ptr, ptr, ptr, ptr, ptr, ptr, ptr, ptr, ptr, ptr, ptr, ptr, ptr, ptr, ptr, ptr, ptr, ptr, ptr, ptr, ptr, ptr, ptr, ptr, ptr, ptr, ptr, ptr, ptr, ptr, ptr, ptr, ptr, ptr, ptr, ptr, ptr, ptr, ptr, ptr, ptr, ptr, ptr, ptr, ptr, ptr, ptr, ptr, ptr, ptr, ptr, ptr, ptr, ptr, ptr, ptr, ptr, ptr, ptr, ptr, ptr, ptr, ptr, ptr, ptr, ptr, ptr, ptr, ptr, ptr, ptr, ptr, ptr, ptr, ptr, ptr, ptr, ptr, i64, i8, i8, i8, ptr, i32, ptr, %struct.SDL_Rect, ptr, ptr, i32, ptr, ptr, ptr, ptr, i64, ptr, i8, i32, i32, %struct.anon, ptr, ptr, ptr, ptr, ptr, ptr, %struct.SDL_AtomicInt, %struct.SDL_AtomicInt, i8, %struct.anon.0, ptr, ptr, ptr, ptr, ptr }
%struct.anon = type { i32, i32, i32, i32, i32, i32, i32, i32, i32, i32, i32, i32, i32, i32, i32, i32, i32, i32, i32, i32, i32, i32, i32, i32, i32, i32, i32, i32, i32, [256 x i8], ptr }
%struct.anon.0 = type { ptr, ptr, i32, [256 x i8], ptr }

@.str.1 = private unnamed_addr constant [41 x i8] c"Video subsystem has not been initialized\00", align 1
@_this = internal global ptr null, align 8
@.str.20 = private unnamed_addr constant [15 x i8] c"Invalid window\00", align 1
@.str.81 = private unnamed_addr constant [44 x i8] c"The specified window isn't an OpenGL window\00", align 1
@.str.82 = private unnamed_addr constant [65 x i8] c"Use of OpenGL without a window is not supported on this platform\00", align 1

; Function Attrs: nounwind uwtable
define hidden ptr @SDL_GL_GetCurrentContext_REAL() #0 {
  %1 = alloca ptr, align 8
  %2 = load ptr, ptr @_this, align 8
  %3 = icmp ne ptr %2, null
  br i1 %3, label %6, label %4

4:                                                ; preds = %0
  %5 = call zeroext i1 @SDL_UninitializedVideo()
  store ptr null, ptr %1, align 8
  br label %10

6:                                                ; preds = %0
  %7 = load ptr, ptr @_this, align 8
  %8 = getelementptr inbounds nuw %struct.SDL_VideoDevice, ptr %7, i32 0, i32 125
  %9 = call ptr @SDL_GetTLS_REAL(ptr noundef %8)
  store ptr %9, ptr %1, align 8
  br label %10

10:                                               ; preds = %6, %4
  %11 = load ptr, ptr %1, align 8
  ret ptr %11
}

; Function Attrs: nounwind uwtable
define hidden ptr @SDL_GL_GetCurrentWindow_REAL() #0 {
  %1 = alloca ptr, align 8
  %2 = load ptr, ptr @_this, align 8
  %3 = icmp ne ptr %2, null
  br i1 %3, label %6, label %4

4:                                                ; preds = %0
  %5 = call zeroext i1 @SDL_UninitializedVideo()
  store ptr null, ptr %1, align 8
  br label %10

6:                                                ; preds = %0
  %7 = load ptr, ptr @_this, align 8
  %8 = getelementptr inbounds nuw %struct.SDL_VideoDevice, ptr %7, i32 0, i32 124
  %9 = call ptr @SDL_GetTLS_REAL(ptr noundef %8)
  store ptr %9, ptr %1, align 8
  br label %10

10:                                               ; preds = %6, %4
  %11 = load ptr, ptr %1, align 8
  ret ptr %11
}

; Function Attrs: nounwind uwtable
define hidden zeroext i1 @SDL_UninitializedVideo() #0 {
  %1 = call zeroext i1 (ptr, ...) @SDL_SetError_REAL(ptr noundef @.str.1)
  ret i1 %1
}

; Function Attrs: nounwind uwtable
define hidden zeroext i1 @SDL_GL_MakeCurrent_REAL(ptr noundef %0, ptr noundef %1) #0 {
  %3 = alloca i1, align 1
  %4 = alloca ptr, align 8
  %5 = alloca ptr, align 8
  %6 = alloca i8, align 1
  %7 = alloca i32, align 4
  store ptr %0, ptr %4, align 8
  store ptr %1, ptr %5, align 8
  call void @llvm.lifetime.start.p0(i64 1, ptr %6) #10
  %8 = load ptr, ptr @_this, align 8
  %9 = icmp ne ptr %8, null
  br i1 %9, label %12, label %10

10:                                               ; preds = %2
  %11 = call zeroext i1 @SDL_UninitializedVideo()
  store i1 %11, ptr %3, align 1
  store i32 1, ptr %7, align 4
  br label %85

12:                                               ; preds = %2
  %13 = load ptr, ptr %4, align 8
  %14 = call ptr @SDL_GL_GetCurrentWindow_REAL()
  %15 = icmp eq ptr %13, %14
  br i1 %15, label %16, label %21

16:                                               ; preds = %12
  %17 = load ptr, ptr %5, align 8
  %18 = call ptr @SDL_GL_GetCurrentContext_REAL()
  %19 = icmp eq ptr %17, %18
  br i1 %19, label %20, label %21

20:                                               ; preds = %16
  store i1 true, ptr %3, align 1
  store i32 1, ptr %7, align 4
  br label %85

21:                                               ; preds = %16, %12
  %22 = load ptr, ptr %5, align 8
  %23 = icmp ne ptr %22, null
  br i1 %23, label %25, label %24

24:                                               ; preds = %21
  store ptr null, ptr %4, align 8
  br label %56

25:                                               ; preds = %21
  %26 = load ptr, ptr %4, align 8
  %27 = icmp ne ptr %26, null
  br i1 %27, label %28, label %47

28:                                               ; preds = %25
  %29 = load ptr, ptr @_this, align 8
  %30 = icmp ne ptr %29, null
  br i1 %30, label %33, label %31

31:                                               ; preds = %28
  %32 = call zeroext i1 @SDL_UninitializedVideo()
  store i1 false, ptr %3, align 1
  store i32 1, ptr %7, align 4
  br label %85

33:                                               ; preds = %28
  %34 = load ptr, ptr %4, align 8
  %35 = call zeroext i1 @SDL_ObjectValid(ptr noundef %34, i32 noundef 1)
  br i1 %35, label %38, label %36

36:                                               ; preds = %33
  %37 = call zeroext i1 (ptr, ...) @SDL_SetError_REAL(ptr noundef @.str.20)
  store i1 false, ptr %3, align 1
  store i32 1, ptr %7, align 4
  br label %85

38:                                               ; preds = %33
  %39 = load ptr, ptr %4, align 8
  %40 = getelementptr inbounds nuw %struct.SDL_Window, ptr %39, i32 0, i32 15
  %41 = load i64, ptr %40, align 8
  %42 = and i64 %41, 2
  %43 = icmp ne i64 %42, 0
  br i1 %43, label %46, label %44

44:                                               ; preds = %38
  %45 = call zeroext i1 (ptr, ...) @SDL_SetError_REAL(ptr noundef @.str.81)
  store i1 %45, ptr %3, align 1
  store i32 1, ptr %7, align 4
  br label %85

46:                                               ; preds = %38
  br label %55

47:                                               ; preds = %25
  %48 = load ptr, ptr @_this, align 8
  %49 = getelementptr inbounds nuw %struct.SDL_VideoDevice, ptr %48, i32 0, i32 126
  %50 = load i8, ptr %49, align 8, !range !5, !noundef !6
  %51 = trunc i8 %50 to i1
  br i1 %51, label %54, label %52

52:                                               ; preds = %47
  %53 = call zeroext i1 (ptr, ...) @SDL_SetError_REAL(ptr noundef @.str.82)
  store i1 %53, ptr %3, align 1
  store i32 1, ptr %7, align 4
  br label %85

54:                                               ; preds = %47
  br label %55

55:                                               ; preds = %54, %46
  br label %56

56:                                               ; preds = %55, %24
  %57 = load ptr, ptr @_this, align 8
  %58 = getelementptr inbounds nuw %struct.SDL_VideoDevice, ptr %57, i32 0, i32 54
  %59 = load ptr, ptr %58, align 8
  %60 = load ptr, ptr @_this, align 8
  %61 = load ptr, ptr %4, align 8
  %62 = load ptr, ptr %5, align 8
  %63 = call zeroext i1 %59(ptr noundef %60, ptr noundef %61, ptr noundef %62)
  %64 = zext i1 %63 to i8
  store i8 %64, ptr %6, align 1
  %65 = load i8, ptr %6, align 1, !range !5, !noundef !6
  %66 = trunc i8 %65 to i1
  br i1 %66, label %67, label %82

67:                                               ; preds = %56
  %68 = load ptr, ptr %4, align 8
  %69 = load ptr, ptr @_this, align 8
  %70 = getelementptr inbounds nuw %struct.SDL_VideoDevice, ptr %69, i32 0, i32 122
  store ptr %68, ptr %70, align 8
  %71 = load ptr, ptr %5, align 8
  %72 = load ptr, ptr @_this, align 8
  %73 = getelementptr inbounds nuw %struct.SDL_VideoDevice, ptr %72, i32 0, i32 123
  store ptr %71, ptr %73, align 8
  %74 = load ptr, ptr @_this, align 8
  %75 = getelementptr inbounds nuw %struct.SDL_VideoDevice, ptr %74, i32 0, i32 124
  %76 = load ptr, ptr %4, align 8
  %77 = call zeroext i1 @SDL_SetTLS_REAL(ptr noundef %75, ptr noundef %76, ptr noundef null)
  %78 = load ptr, ptr @_this, align 8
  %79 = getelementptr inbounds nuw %struct.SDL_VideoDevice, ptr %78, i32 0, i32 125
  %80 = load ptr, ptr %5, align 8
  %81 = call zeroext i1 @SDL_SetTLS_REAL(ptr noundef %79, ptr noundef %80, ptr noundef null)
  br label %82

82:                                               ; preds = %67, %56
  %83 = load i8, ptr %6, align 1, !range !5, !noundef !6
  %84 = trunc i8 %83 to i1
  store i1 %84, ptr %3, align 1
  store i32 1, ptr %7, align 4
  br label %85

85:                                               ; preds = %82, %52, %44, %36, %31, %20, %10
  call void @llvm.lifetime.end.p0(i64 1, ptr %6) #10
  %86 = load i1, ptr %3, align 1
  ret i1 %86
}