; Function Attrs: nounwind uwtable
define hidden zeroext i1 @SDL_GL_MakeCurrent_REAL(ptr noundef %0, ptr noundef %1) local_unnamed_addr #0 {
  %3 = load ptr, ptr @_this, align 8
  %.not = icmp eq ptr %3, null
  br i1 %.not, label %4, label %SDL_GL_GetCurrentWindow_REAL.exit

4:                                                ; preds = %2
  %5 = tail call zeroext i1 (ptr, ...) @SDL_SetError_REAL(ptr noundef nonnull @.str.1) #19
  br label %53

SDL_GL_GetCurrentWindow_REAL.exit:                ; preds = %2
  %6 = getelementptr inbounds nuw i8, ptr %3, i64 1352
  %7 = tail call ptr @SDL_GetTLS_REAL(ptr noundef nonnull %6) #19
  %8 = icmp eq ptr %0, %7
  br i1 %8, label %9, label %17

9:                                                ; preds = %SDL_GL_GetCurrentWindow_REAL.exit
  %10 = load ptr, ptr @_this, align 8
  %.not.i20 = icmp eq ptr %10, null
  br i1 %.not.i20, label %11, label %13

11:                                               ; preds = %9
  %12 = tail call zeroext i1 (ptr, ...) @SDL_SetError_REAL(ptr noundef nonnull @.str.1) #19
  br label %SDL_GL_GetCurrentContext_REAL.exit

13:                                               ; preds = %9
  %14 = getelementptr inbounds nuw i8, ptr %10, i64 1356
  %15 = tail call ptr @SDL_GetTLS_REAL(ptr noundef nonnull %14) #19
  br label %SDL_GL_GetCurrentContext_REAL.exit

SDL_GL_GetCurrentContext_REAL.exit:               ; preds = %11, %13
  %.0.i21 = phi ptr [ %15, %13 ], [ null, %11 ]
  %16 = icmp eq ptr %1, %.0.i21
  br i1 %16, label %53, label %17

17:                                               ; preds = %SDL_GL_GetCurrentContext_REAL.exit, %SDL_GL_GetCurrentWindow_REAL.exit
  %.not16 = icmp eq ptr %1, null
  br i1 %.not16, label %39, label %18

18:                                               ; preds = %17
  %.not17 = icmp eq ptr %0, null
  %19 = load ptr, ptr @_this, align 8
  br i1 %.not17, label %33, label %20

20:                                               ; preds = %18
  %.not18 = icmp eq ptr %19, null
  br i1 %.not18, label %21, label %23

21:                                               ; preds = %20
  %22 = tail call zeroext i1 (ptr, ...) @SDL_SetError_REAL(ptr noundef nonnull @.str.1) #19
  br label %53

23:                                               ; preds = %20
  %24 = tail call zeroext i1 @SDL_ObjectValid(ptr noundef nonnull %0, i32 noundef 1) #19
  br i1 %24, label %27, label %25

25:                                               ; preds = %23
  %26 = tail call zeroext i1 (ptr, ...) @SDL_SetError_REAL(ptr noundef nonnull @.str.20) #19
  br label %53

27:                                               ; preds = %23
  %28 = getelementptr inbounds nuw i8, ptr %0, i64 72
  %29 = load i64, ptr %28, align 8
  %30 = and i64 %29, 2
  %.not19 = icmp eq i64 %30, 0
  br i1 %.not19, label %31, label %39

31:                                               ; preds = %27
  %32 = tail call zeroext i1 (ptr, ...) @SDL_SetError_REAL(ptr noundef nonnull @.str.81) #19
  br label %53

33:                                               ; preds = %18
  %34 = getelementptr inbounds nuw i8, ptr %19, i64 1360
  %35 = load i8, ptr %34, align 8, !range !6, !noundef !7
  %36 = trunc nuw i8 %35 to i1
  br i1 %36, label %39, label %37

37:                                               ; preds = %33
  %38 = tail call zeroext i1 (ptr, ...) @SDL_SetError_REAL(ptr noundef nonnull @.str.82) #19
  br label %53

39:                                               ; preds = %17, %27, %33
  %.014 = phi ptr [ %0, %27 ], [ null, %33 ], [ null, %17 ]
  %40 = load ptr, ptr @_this, align 8
  %41 = getelementptr inbounds nuw i8, ptr %40, i64 432
  %42 = load ptr, ptr %41, align 8
  %43 = tail call zeroext i1 %42(ptr noundef %40, ptr noundef %.014, ptr noundef %1) #19
  br i1 %43, label %44, label %53

44:                                               ; preds = %39
  %45 = load ptr, ptr @_this, align 8
  %46 = getelementptr inbounds nuw i8, ptr %45, i64 1336
  store ptr %.014, ptr %46, align 8
  %47 = getelementptr inbounds nuw i8, ptr %45, i64 1344
  store ptr %1, ptr %47, align 8
  %48 = getelementptr inbounds nuw i8, ptr %45, i64 1352
  %49 = tail call zeroext i1 @SDL_SetTLS_REAL(ptr noundef nonnull %48, ptr noundef %.014, ptr noundef null) #19
  %50 = load ptr, ptr @_this, align 8
  %51 = getelementptr inbounds nuw i8, ptr %50, i64 1356
  %52 = tail call zeroext i1 @SDL_SetTLS_REAL(ptr noundef nonnull %51, ptr noundef %1, ptr noundef null) #19
  br label %53

53:                                               ; preds = %39, %44, %SDL_GL_GetCurrentContext_REAL.exit, %37, %31, %25, %21, %4
  %.0 = phi i1 [ %32, %31 ], [ false, %25 ], [ false, %21 ], [ %38, %37 ], [ %5, %4 ], [ true, %SDL_GL_GetCurrentContext_REAL.exit ], [ true, %44 ], [ false, %39 ]
  ret i1 %.0
}